target datalayout = "e-m:e-p270:32:32-p271:32:32-p272:64:64-i64:64-i128:128-f80:128-n8:16:32:64-S128"
target triple = "x86_64-unknown-linux-gnu"

%"class.icu_75::UTF8CollationIterator" = type { %"class.icu_75::CollationIterator.base", ptr, i32, i32 }
%"class.icu_75::CollationIterator.base" = type <{ %"class.icu_75::UObject", ptr, ptr, %"class.icu_75::CollationIterator::CEBuffer", i32, [4 x i8], ptr, i32, i8 }>
%"class.icu_75::UObject" = type { ptr }
%"class.icu_75::CollationIterator::CEBuffer" = type { i32, %"class.icu_75::MaybeStackArray.0" }
%"class.icu_75::MaybeStackArray.0" = type { ptr, i32, i8, [40 x i64] }

; Function Attrs: mustprogress uwtable
define void @_ZN6icu_7521UTF8CollationIterator21backwardNumCodePointsEiR10UErrorCode(ptr noundef nonnull align 8 dereferenceable(408) %this, i32 noundef %num, ptr noundef nonnull align 4 dereferenceable(4) %0) unnamed_addr #1 align 2 {
entry:
  %this.addr = alloca ptr, align 8
  %num.addr = alloca i32, align 4
  %.addr = alloca ptr, align 8
  %__N = alloca i32, align 4
  store ptr %this, ptr %this.addr, align 8
  store i32 %num, ptr %num.addr, align 4
  store ptr %0, ptr %.addr, align 8
  %this1 = load ptr, ptr %this.addr, align 8
  br label %do.body

do.body:                                          ; preds = %entry
  %1 = load i32, ptr %num.addr, align 4
  store i32 %1, ptr %__N, align 4
  br label %while.cond

while.cond:                                       ; preds = %do.end, %do.body
  %2 = load i32, ptr %__N, align 4
  %cmp = icmp sgt i32 %2, 0
  br i1 %cmp, label %land.rhs, label %land.end

land.rhs:                                         ; preds = %while.cond
  %pos = getelementptr inbounds %"class.icu_75::UTF8CollationIterator", ptr %this1, i32 0, i32 2
  %3 = load i32, ptr %pos, align 8
  %cmp2 = icmp sgt i32 %3, 0
  br label %land.end

land.end:                                         ; preds = %land.rhs, %while.cond
  %4 = phi i1 [ false, %while.cond ], [ %cmp2, %land.rhs ]
  br i1 %4, label %while.body, label %while.end

while.body:                                       ; preds = %land.end
  br label %do.body3

do.body3:                                         ; preds = %while.body
  %u8 = getelementptr inbounds %"class.icu_75::UTF8CollationIterator", ptr %this1, i32 0, i32 1
  %5 = load ptr, ptr %u8, align 8
  %pos4 = getelementptr inbounds %"class.icu_75::UTF8CollationIterator", ptr %this1, i32 0, i32 2
  %6 = load i32, ptr %pos4, align 8
  %dec = add nsw i32 %6, -1
  store i32 %dec, ptr %pos4, align 8
  %idxprom = sext i32 %dec to i64
  %arrayidx = getelementptr inbounds i8, ptr %5, i64 %idxprom
  %7 = load i8, ptr %arrayidx, align 1
  %conv = sext i8 %7 to i32
  %cmp5 = icmp slt i32 %conv, -64
  br i1 %cmp5, label %if.then, label %if.end

if.then:                                          ; preds = %do.body3
  %u86 = getelementptr inbounds %"class.icu_75::UTF8CollationIterator", ptr %this1, i32 0, i32 1
  %8 = load ptr, ptr %u86, align 8
  %pos7 = getelementptr inbounds %"class.icu_75::UTF8CollationIterator", ptr %this1, i32 0, i32 2
  %9 = load i32, ptr %pos7, align 8
  %call = call i32 @utf8_back1SafeBody_75(ptr noundef %8, i32 noundef 0, i32 noundef %9)
  %pos8 = getelementptr inbounds %"class.icu_75::UTF8CollationIterator", ptr %this1, i32 0, i32 2
  store i32 %call, ptr %pos8, align 8
  br label %if.end

if.end:                                           ; preds = %if.then, %do.body3
  br label %do.end

do.end:                                           ; preds = %if.end
  %10 = load i32, ptr %__N, align 4
  %dec9 = add nsw i32 %10, -1
  store i32 %dec9, ptr %__N, align 4
  br label %while.cond, !llvm.loop !6

while.end:                                        ; preds = %land.end
  br label %do.end10

do.end10:                                         ; preds = %while.end
  ret void
}