; Function Attrs: mustprogress uwtable
define void @_ZN6icu_7521UTF8CollationIterator21backwardNumCodePointsEiR10UErrorCode(ptr nocapture noundef nonnull align 8 dereferenceable(408) %this, i32 noundef %num, ptr nocapture nonnull readnone align 4 %0) unnamed_addr #1 align 2 {
entry:
  %pos = getelementptr inbounds i8, ptr %this, i64 400
  %cmp3 = icmp sgt i32 %num, 0
  br i1 %cmp3, label %land.rhs.lr.ph, label %do.end10

land.rhs.lr.ph:                                   ; preds = %entry
  %u8 = getelementptr inbounds i8, ptr %this, i64 392
  %.pre = load i32, ptr %pos, align 8
  br label %land.rhs

land.rhs:                                         ; preds = %land.rhs.lr.ph, %do.end
  %1 = phi i32 [ %.pre, %land.rhs.lr.ph ], [ %4, %do.end ]
  %__N.04 = phi i32 [ %num, %land.rhs.lr.ph ], [ %dec9, %do.end ]
  %cmp2 = icmp sgt i32 %1, 0
  br i1 %cmp2, label %do.body3, label %do.end10

do.body3:                                         ; preds = %land.rhs
  %2 = load ptr, ptr %u8, align 8
  %dec = add nsw i32 %1, -1
  store i32 %dec, ptr %pos, align 8
  %idxprom = zext nneg i32 %dec to i64
  %arrayidx = getelementptr inbounds i8, ptr %2, i64 %idxprom
  %3 = load i8, ptr %arrayidx, align 1
  %cmp5 = icmp slt i8 %3, -64
  br i1 %cmp5, label %if.then, label %do.end

if.then:                                          ; preds = %do.body3
  %call = tail call i32 @utf8_back1SafeBody_75(ptr noundef nonnull %2, i32 noundef 0, i32 noundef %dec)
  store i32 %call, ptr %pos, align 8
  br label %do.end

do.end:                                           ; preds = %do.body3, %if.then
  %4 = phi i32 [ %dec, %do.body3 ], [ %call, %if.then ]
  %dec9 = add nsw i32 %__N.04, -1
  %cmp = icmp sgt i32 %__N.04, 1
  br i1 %cmp, label %land.rhs, label %do.end10, !llvm.loop !6

do.end10:                                         ; preds = %do.end, %land.rhs, %entry
  ret void
}